target datalayout = "e-m:e-p270:32:32-p271:32:32-p272:64:64-i64:64-i128:128-f80:128-n8:16:32:64-S128"
target triple = "x86_64-pc-linux-gnu"

%struct.rb_execarg = type { %union.anon.13, i64, i64, i64, i64, i16, ptr, ptr, i32, i64, i32, i32, i32, i32, i64, i64, i64, i64, i64, i64, i64 }
%union.anon.13 = type { %struct.anon.15 }
%struct.anon.15 = type { i64, i64, i64, i64 }
%struct.anon.14 = type { i64 }

; Function Attrs: nounwind sspstrong uwtable
define internal void @mark_exec_arg(ptr noundef %0) #0 {
  %2 = alloca ptr, align 8
  %3 = alloca ptr, align 8
  store ptr %0, ptr %2, align 8, !tbaa !62
  call void @llvm.lifetime.start.p0(i64 8, ptr %3) #27
  %4 = load ptr, ptr %2, align 8, !tbaa !62
  store ptr %4, ptr %3, align 8, !tbaa !68
  %5 = load ptr, ptr %3, align 8, !tbaa !68
  %6 = getelementptr inbounds nuw %struct.rb_execarg, ptr %5, i32 0, i32 5
  %7 = load i16, ptr %6, align 8
  %8 = and i16 %7, 1
  %9 = zext i16 %8 to i32
  %10 = icmp ne i32 %9, 0
  br i1 %10, label %11, label %16

11:                                               ; preds = %1
  %12 = load ptr, ptr %3, align 8, !tbaa !68
  %13 = getelementptr inbounds nuw %struct.rb_execarg, ptr %12, i32 0, i32 0
  %14 = getelementptr inbounds nuw %struct.anon.14, ptr %13, i32 0, i32 0
  %15 = load i64, ptr %14, align 8, !tbaa !66
  call void @rb_gc_mark(i64 noundef %15)
  br label %33

16:                                               ; preds = %1
  %17 = load ptr, ptr %3, align 8, !tbaa !68
  %18 = getelementptr inbounds nuw %struct.rb_execarg, ptr %17, i32 0, i32 0
  %19 = getelementptr inbounds nuw %struct.anon.15, ptr %18, i32 0, i32 0
  %20 = load i64, ptr %19, align 8, !tbaa !66
  call void @rb_gc_mark(i64 noundef %20)
  %21 = load ptr, ptr %3, align 8, !tbaa !68
  %22 = getelementptr inbounds nuw %struct.rb_execarg, ptr %21, i32 0, i32 0
  %23 = getelementptr inbounds nuw %struct.anon.15, ptr %22, i32 0, i32 1
  %24 = load i64, ptr %23, align 8, !tbaa !66
  call void @rb_gc_mark(i64 noundef %24)
  %25 = load ptr, ptr %3, align 8, !tbaa !68
  %26 = getelementptr inbounds nuw %struct.rb_execarg, ptr %25, i32 0, i32 0
  %27 = getelementptr inbounds nuw %struct.anon.15, ptr %26, i32 0, i32 2
  %28 = load i64, ptr %27, align 8, !tbaa !66
  call void @rb_gc_mark(i64 noundef %28)
  %29 = load ptr, ptr %3, align 8, !tbaa !68
  %30 = getelementptr inbounds nuw %struct.rb_execarg, ptr %29, i32 0, i32 0
  %31 = getelementptr inbounds nuw %struct.anon.15, ptr %30, i32 0, i32 3
  %32 = load i64, ptr %31, align 8, !tbaa !66
  call void @rb_gc_mark(i64 noundef %32)
  br label %33

33:                                               ; preds = %16, %11
  %34 = load ptr, ptr %3, align 8, !tbaa !68
  %35 = getelementptr inbounds nuw %struct.rb_execarg, ptr %34, i32 0, i32 1
  %36 = load i64, ptr %35, align 8, !tbaa !100
  call void @rb_gc_mark(i64 noundef %36)
  %37 = load ptr, ptr %3, align 8, !tbaa !68
  %38 = getelementptr inbounds nuw %struct.rb_execarg, ptr %37, i32 0, i32 2
  %39 = load i64, ptr %38, align 8, !tbaa !105
  call void @rb_gc_mark(i64 noundef %39)
  %40 = load ptr, ptr %3, align 8, !tbaa !68
  %41 = getelementptr inbounds nuw %struct.rb_execarg, ptr %40, i32 0, i32 3
  %42 = load i64, ptr %41, align 8, !tbaa !106
  call void @rb_gc_mark(i64 noundef %42)
  %43 = load ptr, ptr %3, align 8, !tbaa !68
  %44 = getelementptr inbounds nuw %struct.rb_execarg, ptr %43, i32 0, i32 4
  %45 = load i64, ptr %44, align 8, !tbaa !112
  call void @rb_gc_mark(i64 noundef %45)
  %46 = load ptr, ptr %3, align 8, !tbaa !68
  %47 = getelementptr inbounds nuw %struct.rb_execarg, ptr %46, i32 0, i32 9
  %48 = load i64, ptr %47, align 8, !tbaa !82
  call void @rb_gc_mark(i64 noundef %48)
  %49 = load ptr, ptr %3, align 8, !tbaa !68
  %50 = getelementptr inbounds nuw %struct.rb_execarg, ptr %49, i32 0, i32 14
  %51 = load i64, ptr %50, align 8, !tbaa !84
  call void @rb_gc_mark(i64 noundef %51)
  %52 = load ptr, ptr %3, align 8, !tbaa !68
  %53 = getelementptr inbounds nuw %struct.rb_execarg, ptr %52, i32 0, i32 15
  %54 = load i64, ptr %53, align 8, !tbaa !83
  call void @rb_gc_mark(i64 noundef %54)
  %55 = load ptr, ptr %3, align 8, !tbaa !68
  %56 = getelementptr inbounds nuw %struct.rb_execarg, ptr %55, i32 0, i32 16
  %57 = load i64, ptr %56, align 8, !tbaa !87
  call void @rb_gc_mark(i64 noundef %57)
  %58 = load ptr, ptr %3, align 8, !tbaa !68
  %59 = getelementptr inbounds nuw %struct.rb_execarg, ptr %58, i32 0, i32 17
  %60 = load i64, ptr %59, align 8, !tbaa !85
  call void @rb_gc_mark(i64 noundef %60)
  %61 = load ptr, ptr %3, align 8, !tbaa !68
  %62 = getelementptr inbounds nuw %struct.rb_execarg, ptr %61, i32 0, i32 18
  %63 = load i64, ptr %62, align 8, !tbaa !91
  call void @rb_gc_mark(i64 noundef %63)
  %64 = load ptr, ptr %3, align 8, !tbaa !68
  %65 = getelementptr inbounds nuw %struct.rb_execarg, ptr %64, i32 0, i32 19
  %66 = load i64, ptr %65, align 8, !tbaa !249
  call void @rb_gc_mark(i64 noundef %66)
  %67 = load ptr, ptr %3, align 8, !tbaa !68
  %68 = getelementptr inbounds nuw %struct.rb_execarg, ptr %67, i32 0, i32 20
  %69 = load i64, ptr %68, align 8, !tbaa !76
  call void @rb_gc_mark(i64 noundef %69)
  call void @llvm.lifetime.end.p0(i64 8, ptr %3) #27
  ret void
}