; Function Attrs: nounwind sspstrong uwtable
define internal void @mark_exec_arg(ptr noundef readonly captures(none) %0) #1 {
  %2 = getelementptr inbounds nuw i8, ptr %0, i64 64
  %3 = load i16, ptr %2, align 8
  %4 = and i16 %3, 1
  %.not = icmp eq i16 %4, 0
  %5 = load i64, ptr %0, align 8, !tbaa !67
  tail call void @rb_gc_mark(i64 noundef %5) #27
  br i1 %.not, label %6, label %13

6:                                                ; preds = %1
  %7 = getelementptr inbounds nuw i8, ptr %0, i64 8
  %8 = load i64, ptr %7, align 8, !tbaa !67
  tail call void @rb_gc_mark(i64 noundef %8) #27
  %9 = getelementptr inbounds nuw i8, ptr %0, i64 16
  %10 = load i64, ptr %9, align 8, !tbaa !67
  tail call void @rb_gc_mark(i64 noundef %10) #27
  %11 = getelementptr inbounds nuw i8, ptr %0, i64 24
  %12 = load i64, ptr %11, align 8, !tbaa !67
  tail call void @rb_gc_mark(i64 noundef %12) #27
  br label %13

13:                                               ; preds = %1, %6
  %14 = getelementptr inbounds nuw i8, ptr %0, i64 32
  %15 = load i64, ptr %14, align 8, !tbaa !150
  tail call void @rb_gc_mark(i64 noundef %15) #27
  %16 = getelementptr inbounds nuw i8, ptr %0, i64 40
  %17 = load i64, ptr %16, align 8, !tbaa !160
  tail call void @rb_gc_mark(i64 noundef %17) #27
  %18 = getelementptr inbounds nuw i8, ptr %0, i64 48
  %19 = load i64, ptr %18, align 8, !tbaa !161
  tail call void @rb_gc_mark(i64 noundef %19) #27
  %20 = getelementptr inbounds nuw i8, ptr %0, i64 56
  %21 = load i64, ptr %20, align 8, !tbaa !151
  tail call void @rb_gc_mark(i64 noundef %21) #27
  %22 = getelementptr inbounds nuw i8, ptr %0, i64 96
  %23 = load i64, ptr %22, align 8, !tbaa !77
  tail call void @rb_gc_mark(i64 noundef %23) #27
  %24 = getelementptr inbounds nuw i8, ptr %0, i64 120
  %25 = load i64, ptr %24, align 8, !tbaa !89
  tail call void @rb_gc_mark(i64 noundef %25) #27
  %26 = getelementptr inbounds nuw i8, ptr %0, i64 128
  %27 = load i64, ptr %26, align 8, !tbaa !88
  tail call void @rb_gc_mark(i64 noundef %27) #27
  %28 = getelementptr inbounds nuw i8, ptr %0, i64 136
  %29 = load i64, ptr %28, align 8, !tbaa !92
  tail call void @rb_gc_mark(i64 noundef %29) #27
  %30 = getelementptr inbounds nuw i8, ptr %0, i64 144
  %31 = load i64, ptr %30, align 8, !tbaa !90
  tail call void @rb_gc_mark(i64 noundef %31) #27
  %32 = getelementptr inbounds nuw i8, ptr %0, i64 152
  %33 = load i64, ptr %32, align 8, !tbaa !102
  tail call void @rb_gc_mark(i64 noundef %33) #27
  %34 = getelementptr inbounds nuw i8, ptr %0, i64 160
  %35 = load i64, ptr %34, align 8, !tbaa !116
  tail call void @rb_gc_mark(i64 noundef %35) #27
  %36 = getelementptr inbounds nuw i8, ptr %0, i64 168
  %37 = load i64, ptr %36, align 8, !tbaa !84
  tail call void @rb_gc_mark(i64 noundef %37) #27
  ret void
}